target datalayout = "e-m:e-p270:32:32-p271:32:32-p272:64:64-i64:64-i128:128-f80:128-n8:16:32:64-S128"
target triple = "x86_64-pc-linux-gnu"

%struct.yy_buffer_state = type { ptr, ptr, ptr, i32, i32, i32, i32, i32, i32, i32, i32, i32 }

@V3PreLexin = dso_local global ptr null, align 8
@V3PreLextext = dso_local global ptr null, align 8
@_ZL15yy_buffer_stack = internal global ptr null, align 8
@_ZL19yy_buffer_stack_top = internal global i64 0, align 8
@_ZL10yy_c_buf_p = internal global ptr null, align 8
@_ZL12yy_hold_char = internal global i8 0, align 1
@_ZL10yy_n_chars = internal global i32 0, align 4

; Function Attrs: mustprogress nounwind uwtable
define internal void @_ZL26V3PreLex_load_buffer_statev() #4 {
  %1 = load ptr, ptr @_ZL15yy_buffer_stack, align 8, !tbaa !15
  %2 = load i64, ptr @_ZL19yy_buffer_stack_top, align 8, !tbaa !11
  %3 = getelementptr inbounds nuw ptr, ptr %1, i64 %2
  %4 = load ptr, ptr %3, align 8, !tbaa !18
  %5 = getelementptr inbounds nuw %struct.yy_buffer_state, ptr %4, i32 0, i32 4
  %6 = load i32, ptr %5, align 4, !tbaa !61
  store i32 %6, ptr @_ZL10yy_n_chars, align 4, !tbaa !9
  %7 = load ptr, ptr @_ZL15yy_buffer_stack, align 8, !tbaa !15
  %8 = load i64, ptr @_ZL19yy_buffer_stack_top, align 8, !tbaa !11
  %9 = getelementptr inbounds nuw ptr, ptr %7, i64 %8
  %10 = load ptr, ptr %9, align 8, !tbaa !18
  %11 = getelementptr inbounds nuw %struct.yy_buffer_state, ptr %10, i32 0, i32 2
  %12 = load ptr, ptr %11, align 8, !tbaa !67
  store ptr %12, ptr @_ZL10yy_c_buf_p, align 8, !tbaa !4
  store ptr %12, ptr @V3PreLextext, align 8, !tbaa !4
  %13 = load ptr, ptr @_ZL15yy_buffer_stack, align 8, !tbaa !15
  %14 = load i64, ptr @_ZL19yy_buffer_stack_top, align 8, !tbaa !11
  %15 = getelementptr inbounds nuw ptr, ptr %13, i64 %14
  %16 = load ptr, ptr %15, align 8, !tbaa !18
  %17 = getelementptr inbounds nuw %struct.yy_buffer_state, ptr %16, i32 0, i32 0
  %18 = load ptr, ptr %17, align 8, !tbaa !62
  store ptr %18, ptr @V3PreLexin, align 8, !tbaa !13
  %19 = load ptr, ptr @_ZL10yy_c_buf_p, align 8, !tbaa !4
  %20 = load i8, ptr %19, align 1, !tbaa !20
  store i8 %20, ptr @_ZL12yy_hold_char, align 1, !tbaa !20
  ret void
}

; Function Attrs: mustprogress uwtable
define dso_local void @_Z21V3PreLex_flush_bufferP15yy_buffer_state(ptr noundef %0) #5 {
  %2 = alloca ptr, align 8
  store ptr %0, ptr %2, align 8, !tbaa !18
  %3 = load ptr, ptr %2, align 8, !tbaa !18
  %4 = icmp ne ptr %3, null
  br i1 %4, label %6, label %5

5:                                                ; preds = %1
  br label %40

6:                                                ; preds = %1
  %7 = load ptr, ptr %2, align 8, !tbaa !18
  %8 = getelementptr inbounds nuw %struct.yy_buffer_state, ptr %7, i32 0, i32 4
  store i32 0, ptr %8, align 4, !tbaa !61
  %9 = load ptr, ptr %2, align 8, !tbaa !18
  %10 = getelementptr inbounds nuw %struct.yy_buffer_state, ptr %9, i32 0, i32 1
  %11 = load ptr, ptr %10, align 8, !tbaa !63
  %12 = getelementptr inbounds i8, ptr %11, i64 0
  store i8 0, ptr %12, align 1, !tbaa !20
  %13 = load ptr, ptr %2, align 8, !tbaa !18
  %14 = getelementptr inbounds nuw %struct.yy_buffer_state, ptr %13, i32 0, i32 1
  %15 = load ptr, ptr %14, align 8, !tbaa !63
  %16 = getelementptr inbounds i8, ptr %15, i64 1
  store i8 0, ptr %16, align 1, !tbaa !20
  %17 = load ptr, ptr %2, align 8, !tbaa !18
  %18 = getelementptr inbounds nuw %struct.yy_buffer_state, ptr %17, i32 0, i32 1
  %19 = load ptr, ptr %18, align 8, !tbaa !63
  %20 = getelementptr inbounds i8, ptr %19, i64 0
  %21 = load ptr, ptr %2, align 8, !tbaa !18
  %22 = getelementptr inbounds nuw %struct.yy_buffer_state, ptr %21, i32 0, i32 2
  store ptr %20, ptr %22, align 8, !tbaa !67
  %23 = load ptr, ptr %2, align 8, !tbaa !18
  %24 = getelementptr inbounds nuw %struct.yy_buffer_state, ptr %23, i32 0, i32 7
  store i32 1, ptr %24, align 8, !tbaa !21
  %25 = load ptr, ptr %2, align 8, !tbaa !18
  %26 = getelementptr inbounds nuw %struct.yy_buffer_state, ptr %25, i32 0, i32 11
  store i32 0, ptr %26, align 8, !tbaa !60
  %27 = load ptr, ptr %2, align 8, !tbaa !18
  %28 = load ptr, ptr @_ZL15yy_buffer_stack, align 8, !tbaa !15
  %29 = icmp ne ptr %28, null
  br i1 %29, label %30, label %35

30:                                               ; preds = %6
  %31 = load ptr, ptr @_ZL15yy_buffer_stack, align 8, !tbaa !15
  %32 = load i64, ptr @_ZL19yy_buffer_stack_top, align 8, !tbaa !11
  %33 = getelementptr inbounds nuw ptr, ptr %31, i64 %32
  %34 = load ptr, ptr %33, align 8, !tbaa !18
  br label %36

35:                                               ; preds = %6
  br label %36

36:                                               ; preds = %35, %30
  %37 = phi ptr [ %34, %30 ], [ null, %35 ]
  %38 = icmp eq ptr %27, %37
  br i1 %38, label %39, label %40

39:                                               ; preds = %36
  call void @_ZL26V3PreLex_load_buffer_statev()
  br label %40

40:                                               ; preds = %5, %39, %36
  ret void
}

; Function Attrs: mustprogress uwtable
define internal void @_ZL20V3PreLex_init_bufferP15yy_buffer_stateP8_IO_FILE(ptr noundef %0, ptr noundef %1) #5 {
  %3 = alloca ptr, align 8
  %4 = alloca ptr, align 8
  %5 = alloca i32, align 4
  store ptr %0, ptr %3, align 8, !tbaa !18
  store ptr %1, ptr %4, align 8, !tbaa !13
  call void @llvm.lifetime.start.p0(i64 4, ptr %5) #3
  %6 = call ptr @__errno_location() #28
  %7 = load i32, ptr %6, align 4, !tbaa !9
  store i32 %7, ptr %5, align 4, !tbaa !9
  %8 = load ptr, ptr %3, align 8, !tbaa !18
  call void @_Z21V3PreLex_flush_bufferP15yy_buffer_state(ptr noundef %8)
  %9 = load ptr, ptr %4, align 8, !tbaa !13
  %10 = load ptr, ptr %3, align 8, !tbaa !18
  %11 = getelementptr inbounds nuw %struct.yy_buffer_state, ptr %10, i32 0, i32 0
  store ptr %9, ptr %11, align 8, !tbaa !62
  %12 = load ptr, ptr %3, align 8, !tbaa !18
  %13 = getelementptr inbounds nuw %struct.yy_buffer_state, ptr %12, i32 0, i32 10
  store i32 1, ptr %13, align 4, !tbaa !151
  %14 = load ptr, ptr %3, align 8, !tbaa !18
  %15 = load ptr, ptr @_ZL15yy_buffer_stack, align 8, !tbaa !15
  %16 = icmp ne ptr %15, null
  br i1 %16, label %17, label %22

17:                                               ; preds = %2
  %18 = load ptr, ptr @_ZL15yy_buffer_stack, align 8, !tbaa !15
  %19 = load i64, ptr @_ZL19yy_buffer_stack_top, align 8, !tbaa !11
  %20 = getelementptr inbounds nuw ptr, ptr %18, i64 %19
  %21 = load ptr, ptr %20, align 8, !tbaa !18
  br label %23

22:                                               ; preds = %2
  br label %23

23:                                               ; preds = %22, %17
  %24 = phi ptr [ %21, %17 ], [ null, %22 ]
  %25 = icmp ne ptr %14, %24
  br i1 %25, label %26, label %31

26:                                               ; preds = %23
  %27 = load ptr, ptr %3, align 8, !tbaa !18
  %28 = getelementptr inbounds nuw %struct.yy_buffer_state, ptr %27, i32 0, i32 8
  store i32 1, ptr %28, align 4, !tbaa !154
  %29 = load ptr, ptr %3, align 8, !tbaa !18
  %30 = getelementptr inbounds nuw %struct.yy_buffer_state, ptr %29, i32 0, i32 9
  store i32 0, ptr %30, align 8, !tbaa !155
  br label %31

31:                                               ; preds = %26, %23
  %32 = load ptr, ptr %4, align 8, !tbaa !13
  %33 = icmp ne ptr %32, null
  br i1 %33, label %34, label %40

34:                                               ; preds = %31
  %35 = load ptr, ptr %4, align 8, !tbaa !13
  %36 = call i32 @fileno(ptr noundef %35) #3
  %37 = call i32 @isatty(i32 noundef %36) #3
  %38 = icmp sgt i32 %37, 0
  %39 = zext i1 %38 to i32
  br label %41

40:                                               ; preds = %31
  br label %41

41:                                               ; preds = %40, %34
  %42 = phi i32 [ %39, %34 ], [ 0, %40 ]
  %43 = load ptr, ptr %3, align 8, !tbaa !18
  %44 = getelementptr inbounds nuw %struct.yy_buffer_state, ptr %43, i32 0, i32 6
  store i32 %42, ptr %44, align 4, !tbaa !156
  %45 = load i32, ptr %5, align 4, !tbaa !9
  %46 = call ptr @__errno_location() #28
  store i32 %45, ptr %46, align 4, !tbaa !9
  call void @llvm.lifetime.end.p0(i64 4, ptr %5) #3
  ret void
}